target datalayout = "e-m:e-p270:32:32-p271:32:32-p272:64:64-i64:64-i128:128-f80:128-n8:16:32:64-S128"
target triple = "x86_64-pc-linux-gnu"

%struct.JsonbInState = type { ptr, ptr, i8, ptr }

; Function Attrs: inlinehint nounwind uwtable
define internal i64 @PointerGetDatum(ptr noundef %0) #2 {
  %2 = alloca ptr, align 8
  store ptr %0, ptr %2, align 8
  %3 = load ptr, ptr %2, align 8
  %4 = ptrtoint ptr %3 to i64
  ret i64 %4
}

; Function Attrs: inlinehint nounwind uwtable
define internal i64 @JsonbPGetDatum(ptr noundef %0) #2 {
  %2 = alloca ptr, align 8
  store ptr %0, ptr %2, align 8
  %3 = load ptr, ptr %2, align 8
  %4 = call i64 @PointerGetDatum(ptr noundef %3)
  ret i64 %4
}

; Function Attrs: nounwind uwtable
define dso_local i64 @jsonb_build_array_worker(i32 noundef %0, ptr noundef %1, ptr noundef %2, ptr noundef %3, i1 noundef zeroext %4) #0 {
  %6 = alloca i32, align 4
  %7 = alloca ptr, align 8
  %8 = alloca ptr, align 8
  %9 = alloca ptr, align 8
  %10 = alloca i8, align 1
  %11 = alloca i32, align 4
  %12 = alloca %struct.JsonbInState, align 8
  store i32 %0, ptr %6, align 4
  store ptr %1, ptr %7, align 8
  store ptr %2, ptr %8, align 8
  store ptr %3, ptr %9, align 8
  %13 = zext i1 %4 to i8
  store i8 %13, ptr %10, align 1
  call void @llvm.lifetime.start.p0(i64 4, ptr %11) #8
  call void @llvm.lifetime.start.p0(i64 32, ptr %12) #8
  call void @llvm.memset.p0.i64(ptr align 8 %12, i8 0, i64 32, i1 false)
  %14 = getelementptr inbounds nuw %struct.JsonbInState, ptr %12, i32 0, i32 0
  %15 = call ptr @pushJsonbValue(ptr noundef %14, i32 noundef 4, ptr noundef null)
  %16 = getelementptr inbounds nuw %struct.JsonbInState, ptr %12, i32 0, i32 1
  store ptr %15, ptr %16, align 8
  store i32 0, ptr %11, align 4
  br label %17

17:                                               ; preds = %49, %5
  %18 = load i32, ptr %11, align 4
  %19 = load i32, ptr %6, align 4
  %20 = icmp slt i32 %18, %19
  br i1 %20, label %21, label %52

21:                                               ; preds = %17
  %22 = load i8, ptr %10, align 1, !range !4, !noundef !5
  %23 = trunc i8 %22 to i1
  br i1 %23, label %24, label %32

24:                                               ; preds = %21
  %25 = load ptr, ptr %8, align 8
  %26 = load i32, ptr %11, align 4
  %27 = sext i32 %26 to i64
  %28 = getelementptr inbounds i8, ptr %25, i64 %27
  %29 = load i8, ptr %28, align 1, !range !4, !noundef !5
  %30 = trunc i8 %29 to i1
  br i1 %30, label %31, label %32

31:                                               ; preds = %24
  br label %49

32:                                               ; preds = %24, %21
  %33 = load ptr, ptr %7, align 8
  %34 = load i32, ptr %11, align 4
  %35 = sext i32 %34 to i64
  %36 = getelementptr inbounds i64, ptr %33, i64 %35
  %37 = load i64, ptr %36, align 8
  %38 = load ptr, ptr %8, align 8
  %39 = load i32, ptr %11, align 4
  %40 = sext i32 %39 to i64
  %41 = getelementptr inbounds i8, ptr %38, i64 %40
  %42 = load i8, ptr %41, align 1, !range !4, !noundef !5
  %43 = trunc i8 %42 to i1
  %44 = load ptr, ptr %9, align 8
  %45 = load i32, ptr %11, align 4
  %46 = sext i32 %45 to i64
  %47 = getelementptr inbounds i32, ptr %44, i64 %46
  %48 = load i32, ptr %47, align 4
  call void @add_jsonb(i64 noundef %37, i1 noundef zeroext %43, ptr noundef %12, i32 noundef %48, i1 noundef zeroext false)
  br label %49

49:                                               ; preds = %32, %31
  %50 = load i32, ptr %11, align 4
  %51 = add i32 %50, 1
  store i32 %51, ptr %11, align 4
  br label %17, !llvm.loop !10

52:                                               ; preds = %17
  %53 = getelementptr inbounds nuw %struct.JsonbInState, ptr %12, i32 0, i32 0
  %54 = call ptr @pushJsonbValue(ptr noundef %53, i32 noundef 5, ptr noundef null)
  %55 = getelementptr inbounds nuw %struct.JsonbInState, ptr %12, i32 0, i32 1
  store ptr %54, ptr %55, align 8
  %56 = getelementptr inbounds nuw %struct.JsonbInState, ptr %12, i32 0, i32 1
  %57 = load ptr, ptr %56, align 8
  %58 = call ptr @JsonbValueToJsonb(ptr noundef %57)
  %59 = call i64 @JsonbPGetDatum(ptr noundef %58)
  call void @llvm.lifetime.end.p0(i64 32, ptr %12) #8
  call void @llvm.lifetime.end.p0(i64 4, ptr %11) #8
  ret i64 %59
}