; Function Attrs: nounwind uwtable
define dso_local i64 @jsonb_build_array_worker(i32 noundef %0, ptr noundef readonly captures(none) %1, ptr noundef readonly captures(none) %2, ptr noundef readonly captures(none) %3, i1 noundef zeroext %4) local_unnamed_addr #0 {
  %6 = alloca %struct.JsonbInState, align 8
  call void @llvm.lifetime.start.p0(i64 32, ptr nonnull %6) #11
  call void @llvm.memset.p0.i64(ptr noundef nonnull align 8 dereferenceable(32) %6, i8 0, i64 32, i1 false)
  %7 = call ptr @pushJsonbValue(ptr noundef nonnull %6, i32 noundef 4, ptr noundef null) #11
  %8 = getelementptr inbounds nuw i8, ptr %6, i64 8
  store ptr %7, ptr %8, align 8
  %9 = icmp sgt i32 %0, 0
  br i1 %9, label %.lr.ph, label %._crit_edge

.lr.ph:                                           ; preds = %5
  %wide.trip.count17 = zext nneg i32 %0 to i64
  br i1 %4, label %.lr.ph.split.us, label %.lr.ph.split

.lr.ph.split.us:                                  ; preds = %.lr.ph, %18
  %indvars.iv14 = phi i64 [ %indvars.iv.next15, %18 ], [ 0, %.lr.ph ]
  %10 = getelementptr inbounds nuw i8, ptr %2, i64 %indvars.iv14
  %11 = load i8, ptr %10, align 1, !range !7, !noundef !8
  %12 = trunc nuw i8 %11 to i1
  br i1 %12, label %18, label %13

13:                                               ; preds = %.lr.ph.split.us
  %14 = getelementptr inbounds nuw i64, ptr %1, i64 %indvars.iv14
  %15 = load i64, ptr %14, align 8
  %16 = getelementptr inbounds nuw i32, ptr %3, i64 %indvars.iv14
  %17 = load i32, ptr %16, align 4
  call fastcc void @add_jsonb(i64 noundef %15, i1 noundef zeroext false, ptr noundef %6, i32 noundef %17, i1 noundef zeroext false)
  br label %18

18:                                               ; preds = %13, %.lr.ph.split.us
  %indvars.iv.next15 = add nuw nsw i64 %indvars.iv14, 1
  %exitcond18.not = icmp eq i64 %indvars.iv.next15, %wide.trip.count17
  br i1 %exitcond18.not, label %._crit_edge, label %.lr.ph.split.us, !llvm.loop !14

.lr.ph.split:                                     ; preds = %.lr.ph, %.lr.ph.split
  %indvars.iv = phi i64 [ %indvars.iv.next, %.lr.ph.split ], [ 0, %.lr.ph ]
  %19 = getelementptr inbounds nuw i64, ptr %1, i64 %indvars.iv
  %20 = load i64, ptr %19, align 8
  %21 = getelementptr inbounds nuw i8, ptr %2, i64 %indvars.iv
  %22 = load i8, ptr %21, align 1, !range !7, !noundef !8
  %23 = trunc nuw i8 %22 to i1
  %24 = getelementptr inbounds nuw i32, ptr %3, i64 %indvars.iv
  %25 = load i32, ptr %24, align 4
  call fastcc void @add_jsonb(i64 noundef %20, i1 noundef zeroext %23, ptr noundef %6, i32 noundef %25, i1 noundef zeroext false)
  %indvars.iv.next = add nuw nsw i64 %indvars.iv, 1
  %exitcond.not = icmp eq i64 %indvars.iv.next, %wide.trip.count17
  br i1 %exitcond.not, label %._crit_edge, label %.lr.ph.split, !llvm.loop !14

._crit_edge:                                      ; preds = %.lr.ph.split, %18, %5
  %26 = call ptr @pushJsonbValue(ptr noundef nonnull %6, i32 noundef 5, ptr noundef null) #11
  store ptr %26, ptr %8, align 8
  %27 = call ptr @JsonbValueToJsonb(ptr noundef %26) #11
  %28 = ptrtoint ptr %27 to i64
  call void @llvm.lifetime.end.p0(i64 32, ptr nonnull %6) #11
  ret i64 %28
}